target datalayout = "e-m:e-p270:32:32-p271:32:32-p272:64:64-i64:64-i128:128-f80:128-n8:16:32:64-S128"
target triple = "x86_64-unknown-linux-gnu"

; Function Attrs: mustprogress uwtable
define noundef nonnull align 8 dereferenceable(64) ptr @_ZN6icu_7513UnicodeString7replaceEiii(ptr noundef nonnull align 8 dereferenceable(64) %this, i32 noundef %start, i32 noundef %_length, i32 noundef %srcChar) #3 align 2 {
entry:
  %this.addr = alloca ptr, align 8
  %start.addr = alloca i32, align 4
  %_length.addr = alloca i32, align 4
  %srcChar.addr = alloca i32, align 4
  %buffer = alloca [2 x i16], align 2
  %count = alloca i32, align 4
  %isError = alloca i8, align 1
  store ptr %this, ptr %this.addr, align 8
  store i32 %start, ptr %start.addr, align 4
  store i32 %_length, ptr %_length.addr, align 4
  store i32 %srcChar, ptr %srcChar.addr, align 4
  %this1 = load ptr, ptr %this.addr, align 8
  store i32 0, ptr %count, align 4
  store i8 0, ptr %isError, align 1
  br label %do.body

do.body:                                          ; preds = %entry
  %0 = load i32, ptr %srcChar.addr, align 4
  %cmp = icmp ule i32 %0, 65535
  br i1 %cmp, label %if.then, label %if.else

if.then:                                          ; preds = %do.body
  %1 = load i32, ptr %srcChar.addr, align 4
  %conv = trunc i32 %1 to i16
  %2 = load i32, ptr %count, align 4
  %inc = add nsw i32 %2, 1
  store i32 %inc, ptr %count, align 4
  %idxprom = sext i32 %2 to i64
  %arrayidx = getelementptr inbounds [2 x i16], ptr %buffer, i64 0, i64 %idxprom
  store i16 %conv, ptr %arrayidx, align 2
  br label %if.end15

if.else:                                          ; preds = %do.body
  %3 = load i32, ptr %srcChar.addr, align 4
  %cmp2 = icmp ule i32 %3, 1114111
  br i1 %cmp2, label %land.lhs.true, label %if.else14

land.lhs.true:                                    ; preds = %if.else
  %4 = load i32, ptr %count, align 4
  %add = add nsw i32 %4, 1
  %cmp3 = icmp slt i32 %add, 2
  br i1 %cmp3, label %if.then4, label %if.else14

if.then4:                                         ; preds = %land.lhs.true
  %5 = load i32, ptr %srcChar.addr, align 4
  %shr = ashr i32 %5, 10
  %add5 = add nsw i32 %shr, 55232
  %conv6 = trunc i32 %add5 to i16
  %6 = load i32, ptr %count, align 4
  %inc7 = add nsw i32 %6, 1
  store i32 %inc7, ptr %count, align 4
  %idxprom8 = sext i32 %6 to i64
  %arrayidx9 = getelementptr inbounds [2 x i16], ptr %buffer, i64 0, i64 %idxprom8
  store i16 %conv6, ptr %arrayidx9, align 2
  %7 = load i32, ptr %srcChar.addr, align 4
  %and = and i32 %7, 1023
  %or = or i32 %and, 56320
  %conv10 = trunc i32 %or to i16
  %8 = load i32, ptr %count, align 4
  %inc11 = add nsw i32 %8, 1
  store i32 %inc11, ptr %count, align 4
  %idxprom12 = sext i32 %8 to i64
  %arrayidx13 = getelementptr inbounds [2 x i16], ptr %buffer, i64 0, i64 %idxprom12
  store i16 %conv10, ptr %arrayidx13, align 2
  br label %if.end

if.else14:                                        ; preds = %land.lhs.true, %if.else
  store i8 1, ptr %isError, align 1
  br label %if.end

if.end:                                           ; preds = %if.else14, %if.then4
  br label %if.end15

if.end15:                                         ; preds = %if.end, %if.then
  br label %do.end

do.end:                                           ; preds = %if.end15
  %9 = load i32, ptr %start.addr, align 4
  %10 = load i32, ptr %_length.addr, align 4
  %arraydecay = getelementptr inbounds [2 x i16], ptr %buffer, i64 0, i64 0
  %11 = load i8, ptr %isError, align 1
  %tobool = icmp ne i8 %11, 0
  br i1 %tobool, label %cond.true, label %cond.false

cond.true:                                        ; preds = %do.end
  br label %cond.end

cond.false:                                       ; preds = %do.end
  %12 = load i32, ptr %count, align 4
  br label %cond.end

cond.end:                                         ; preds = %cond.false, %cond.true
  %cond = phi i32 [ 0, %cond.true ], [ %12, %cond.false ]
  %call = call noundef nonnull align 8 dereferenceable(64) ptr @_ZN6icu_7513UnicodeString9doReplaceEiiPKDsii(ptr noundef nonnull align 8 dereferenceable(64) %this1, i32 noundef %9, i32 noundef %10, ptr noundef %arraydecay, i32 noundef 0, i32 noundef %cond)
  ret ptr %call
}