; Function Attrs: mustprogress uwtable
define noundef nonnull align 8 dereferenceable(64) ptr @_ZN6icu_7513UnicodeString7replaceEiii(ptr noundef nonnull align 8 dereferenceable(64) %this, i32 noundef %start, i32 noundef %_length, i32 noundef %srcChar) local_unnamed_addr #5 align 2 {
entry:
  %buffer = alloca [2 x i16], align 2
  %cmp = icmp ult i32 %srcChar, 65536
  br i1 %cmp, label %if.then, label %if.else

if.then:                                          ; preds = %entry
  %conv = trunc i32 %srcChar to i16
  store i16 %conv, ptr %buffer, align 2
  br label %do.end

if.else:                                          ; preds = %entry
  %cmp2 = icmp ult i32 %srcChar, 1114112
  br i1 %cmp2, label %if.then4, label %do.end

if.then4:                                         ; preds = %if.else
  %shr = lshr i32 %srcChar, 10
  %0 = trunc i32 %shr to i16
  %conv6 = add nuw nsw i16 %0, -10304
  store i16 %conv6, ptr %buffer, align 2
  %1 = trunc i32 %srcChar to i16
  %2 = and i16 %1, 1023
  %conv10 = or disjoint i16 %2, -9216
  %arrayidx13 = getelementptr inbounds i8, ptr %buffer, i64 2
  store i16 %conv10, ptr %arrayidx13, align 2
  br label %do.end

do.end:                                           ; preds = %if.else, %if.then, %if.then4
  %tobool.not = phi i32 [ 1, %if.then ], [ 2, %if.then4 ], [ 0, %if.else ]
  %call = call noundef nonnull align 8 dereferenceable(64) ptr @_ZN6icu_7513UnicodeString9doReplaceEiiPKDsii(ptr noundef nonnull align 8 dereferenceable(64) %this, i32 noundef %start, i32 noundef %_length, ptr noundef nonnull %buffer, i32 noundef 0, i32 noundef %tobool.not)
  ret ptr %call
}